(iwrite_proof
Proof
p1
(dp2
S'passes'
p3
I37
sS'proof'
p4
S'wph wn wph wps wch w3o wn 3pm3.2ni.1 wph wps wch w3o wph wph wph wps wch wph id wps wph 3pm3.2ni.2 pm2.21i wch wph 3pm3.2ni.3 pm2.21i 3jaoi con3i nic-stdmp'
p5
sS'label'
p6
S'3pm3.2ni'
p7
sb.