(iwrite_proof
Proof
p1
(dp2
S'passes'
p3
I19
sS'proof'
p4
S'wth wph wps wta wb wch wet wb wb wth wph wa wps wch wta wet wph wps wch wb wth bi2an9.1 adantl wth wta wet wb wph bi2an9.2 adantr bibi12d ancoms'
p5
sS'label'
p6
S'bi2bian9'
p7
sb.