(iwrite_proof
Proof
p1
(dp2
S'passes'
p3
I504
sS'proof'
p4
S'wph wch wph wps wth wb bnj1457.2 wph id wph wch wps wth wb wph wps wch wth bnj1457.1 baibd ancoms syl2anc'
p5
sS'label'
p6
S'bnj1457'
p7
sb.