(iwrite_proof
Proof
p1
(dp2
S'passes'
p3
I25
sS'proof'
p4
S'cB cC wceq vx wal vx cA cB csb vx cA cC csb wceq wi cA cV wcel cB cC wceq vx wal vx cA cB cC cB cC wceq vx ax12o10lem5 cB cC wceq vx ax467to4 csbeq2d a1i'
p5
sS'label'
p6
S'csbeq2g'
p7
sb.