(iwrite_proof
Proof
p1
(dp2
S'passes'
p3
I72
sS'proof'
p4
S'wps wch wth wth wta wet wps wch wth idn3 e03an.2 wta wth wet wta wet wth wph wta wet e03an.1 e03an.3 mpan adantr expcom e33'
p5
sS'label'
p6
S'e03an'
p7
sb.