(iwrite_proof
Proof
p1
(dp2
S'passes'
p3
I311
sS'proof'
p4
S'wph wch wta wth wps wet wta wph wch e120.3 vd02 e120.2 wph wps wch e120.1 vd12 wps wth wta wet e120.4 com13 e222'
p5
sS'label'
p6
S'e120'
p7
sb.