(iwrite_proof
Proof
p1
(dp2
S'passes'
p3
I327
sS'proof'
p4
S'wph wps wch wps wth wth wa wta wph wps wps wch wph wps idn2 vd23 wph wps wch wth wth wth wth wa e3.1 e3.1 wth wth pm3.22 e33an wth wta wps wth e3.2 ad2antll e33an'
p5
sS'label'
p6
S'e3'
p7
sb.