(iwrite_proof
Proof
p1
(dp2
S'passes'
p3
I18
sS'proof'
p4
S'wph wps vx SetVar3 cA cB SetVar3 cv cA wcel vx ax-17 SetVar3 cv cB wcel vx ax-17 wps vx ax-17 elrab.1 elrabf'
p5
sS'label'
p6
S'elrab'
p7
sb.