(iwrite_proof
Proof
p1
(dp2
S'passes'
p3
I52
sS'proof'
p4
S'SetVar15 SetVar18 SetVar13 SetVar19 SetVar11 SetVar2 cA cB cC cD cpp cer cnp SetVar15 SetVar18 SetVar13 SetVar19 SetVar11 SetVar2 df-enr ecopoveq'
p5
sS'label'
p6
S'enrbreq'
p7
sb.