(iwrite_proof
Proof
p1
(dp2
S'passes'
p3
I461
sS'proof'
p4
S'cG wtr cA cB cF wf cA cB cG wf wb cG wtr cA cB cF cG cF cG wceq cG wtr feq1i.1 a1i feq1d cG wtr wn cA cB cF cG cF cG wceq cG wtr wn feq1i.1 a1i feq1d pm2.61i'
p5
sS'label'
p6
S'feq1i'
p7
sb.