(iwrite_proof
Proof
p1
(dp2
S'passes'
p3
I34
sS'proof'
p4
S'wch wth wb wph wps wb wph wch wi wps wth wi wb wch wth wb wph wps wb wph wch wi wps wth wi wb wch wth wb wph wps wb wa wph wps wch wth wch wth wb wph wps wb simpr wch wth wb wph wps wb simpl imbi12d ex com12'
p5
sS'label'
p6
S'imbi12'
p7
sb.