(iwrite_proof
Proof
p1
(dp2
S'passes'
p3
I2264
sS'proof'
p4
S'wph cA cB wne wps wn wn wph wps wph wps wn cA cB necon1ad.1 necon3ad wph cA cB wne re1tbw2 wps wn wn wph wps wps wn wn wps wph wps notnot2 adantr ex ee22'
p5
sS'label'
p6
S'necon1ad'
p7
sb.