(iwrite_proof
Proof
p1
(dp2
S'passes'
p3
I152
sS'proof'
p4
S'cA cB wne wph wn wn wph wph wph wn cA cB wph wn cA cB wceq necon1abii.1 bicomi necon3abii wph wph wn wph wn biid con1bii wph biid 3bitri'
p5
sS'label'
p6
S'necon1abii'
p7
sb.