(iwrite_proof
Proof
p1
(dp2
S'passes'
p3
I112
sS'proof'
p4
S'vx vy cA cB cC cD cR cS cF cH vx cv cA wceq vy cv cB wceq cR cG cS ovmpt2g.1 ovmpt2g.2 sylan9eq ovmpt2g.3 ovmpt2ga'
p5
sS'label'
p6
S'ovmpt2g'
p7
sb.