(iwrite_proof
Proof
p1
(dp2
S'passes'
p3
I973
sS'proof'
p4
S'wps wps wn wn wps wn wn wn wn wph wn wph wn wn wps wn wn wn wn wn wn pm2.24ii.2 wph pm2.24ii.1 notnoti wph wn wps wn wn wn wn wn wn pm2.24 mp2 notnotri notnotri notnotri'
p5
sS'label'
p6
S'pm2.24ii'
p7
sb.