(iwrite_proof
Proof
p1
(dp2
S'passes'
p3
I148
sS'proof'
p4
S'wph wps wa wch wph wch wn wa wps wn wi wph wch wn wa wps wph wps wa wph wch wn wa wps wph wph wps wph wi wch wn wph wps ax-1 adantr ancrd con3rr3 wch wch wn wps wn wph wch wps wn pm2.24 adantld ja'
p5
sS'label'
p6
S'pm3.37'
p7
sb.