(iwrite_proof
Proof
p1
(dp2
S'passes'
p3
I22
sS'proof'
p4
S'wps wth wb wph wch wb wph wps wa wch wth wa wb wps wth wb wph wch wb wa wph wch wps wth wps wth wb wph wch wb simpr wps wth wb wph wch wb simpl anbi12d ancoms'
p5
sS'label'
p6
S'pm4.38'
p7
sb.