(iwrite_proof
Proof
p1
(dp2
S'passes'
p3
I2237
sS'proof'
p4
S'wph wps wn wph wps wi wph wch wi wb wph wps wn wph wps wi wph wch wi wps wn wps wch wph wps wch pm2.21 imim2d wph wch wps wph wph wps wch pm5.74i.1 biimprd imim2d impbid21d wph wn wph wps wi wph wch wi wph wps pm2.21 wph wch pm2.21 2thd wps wn wn wps wph wps wi wph wch wi wb wps notnot2 wps wph wps wi wph wch wi wps wph ax-1 wph wps wch pm5.74i.1 biimpcd 2thd syl pm2.61nii'
p5
sS'label'
p6
S'pm5.74i'
p7
sb.