(iwrite_proof
Proof
p1
(dp2
S'passes'
p3
I24
sS'proof'
p4
S'SetVar16 SetVar6 cr SetVar16 cv recn SetVar16 cv SetVar6 cv ax-addrcl SetVar16 cv renegcl 1re SetVar16 cv SetVar6 cv remulcl SetVar16 cv rereccl cnsubdrglem'
p5
sS'label'
p6
S'resubdrg'
p7
sb.