(iwrite_proof
Proof
p1
(dp2
S'passes'
p3
I454
sS'proof'
p4
S'wps wph vx vy cv wsbc wps wb wps wph wps vx vy sbie.1 wps wps vx wal wps sbie.1 a1d vx cv vy cv wceq wph wps wb wi wps sbie.2 a1i sbied wps wn wph wps vx vy wps vx sbie.1 ax12o10lem6 wps wps vx wal pm2.21 vx cv vy cv wceq wph wps wb wi wps wn sbie.2 a1i sbied pm2.61i'
p5
sS'label'
p6
S'sbie'
p7
sb.