(iwrite_proof
Proof
p1
(dp2
S'passes'
p3
I149
sS'proof'
p4
S'SetVar15 SetVar5 SetVar6 c0 cR SetVar15 cv SetVar15 cv cR wbr wn SetVar15 c0 SetVar15 cv SetVar15 cv cR wbr wn SetVar15 ral0 rspec SetVar15 cv SetVar5 cv cR wbr SetVar5 cv SetVar6 cv cR wbr wa SetVar15 cv SetVar6 cv cR wbr wi SetVar15 SetVar5 SetVar6 c0 c0 c0 SetVar15 cv SetVar5 cv cR wbr SetVar5 cv SetVar6 cv cR wbr wa SetVar15 cv SetVar6 cv cR wbr wi SetVar6 c0 wral SetVar5 c0 wral SetVar15 ral0 rspec3 SetVar15 cv SetVar5 cv cR wbr SetVar15 cv SetVar5 cv wceq SetVar5 cv SetVar15 cv cR wbr w3o SetVar15 SetVar5 c0 c0 SetVar15 cv SetVar5 cv cR wbr SetVar15 cv SetVar5 cv wceq SetVar5 cv SetVar15 cv cR wbr w3o SetVar5 c0 wral SetVar15 ral0 rspec2 issoi'
p5
sS'label'
p6
S'so0'
p7
sb.