(iwrite_proof
Proof
p1
(dp2
S'passes'
p3
I1030
sS'proof'
p4
S'wph wth wet w3a wch wps wze wph wth wch wps wb wet wph wps wch syl3an9b.1 bicomd 3ad2ant1 wth wet wch wze wb wph wth wch wta wet wze syl3an9b.2 syl3an9b.3 sylan9bb 3adant1 bitr3d'
p5
sS'label'
p6
S'syl3an9b'
p7
sb.