(iwrite_proof
Proof
p1
(dp2
S'passes'
p3
I16
sS'proof'
p4
S'wph cA cB cC cR cA cB cR wbr wph syl5breqr.1 a1i wph cC cB cC cB syl5breqr.2 syl5breqr.2 syl5breqr.2 3eqtr2rd breqtrd'
p5
sS'label'
p6
S'syl5breqr'
p7
sb.