(iwrite_proof
Proof
p1
(dp2
S'passes'
p3
I604
sS'proof'
p4
S'wph wch wa wth wa wps wch wa wta wph wch wa wps wch wa wth wph wps wch sylanl1.1 anim1i adantr wth wps wch wa wta wi wph wch wa wps wch wa wth wta sylanl1.2 expcom adantl mpd'
p5
sS'label'
p6
S'sylanl1'
p7
sb.