(iwrite_proof
Proof
p1
(dp2
S'passes'
p3
I679
sS'proof'
p4
S'wph wps wa wth wph wch wa wta wph wps wa wth wa wph wch wph wps wth simpll wph wps wa wch wth syldanl.1 adantr jca wth wph wch wa wta wph wps wa wph wch wa wth wta syldanl.2 ancoms 3adant1 mpd3an3'
p5
sS'label'
p6
S'syldanl'
p7
sb.