(iwrite_proof
Proof
p1
(dp2
S'passes'
p3
I630
sS'proof'
p4
S'wph wch wps wth w3a wta syld3an1.1 wph wch wps wth w3a wta wph wps wth wta wch syld3an1.2 3adant3r1 ex mpcom'
p5
sS'label'
p6
S'syld3an1'
p7
sb.