(iwrite_proof
Proof
p1
(dp2
S'passes'
p3
I340
sS'proof'
p4
S'SetVar17 SetVar9 SetVar16 cxr clt SetVar17 cv SetVar9 cv xrlttri SetVar17 cv SetVar9 cv SetVar16 cv xrlttr isso2i'
p5
sS'label'
p6
S'xrltso'
p7
sb.